target datalayout = "e-m:e-p270:32:32-p271:32:32-p272:64:64-i64:64-i128:128-f80:128-n8:16:32:64-S128"
target triple = "x86_64-pc-linux-gnu"

%class.cmCTestRunTest = type { ptr, i32, ptr, ptr, ptr, %"class.std::unique_ptr", %"class.std::__cxx11::basic_string", %"struct.cmCTestTestHandler::cmCTestTestResult", %"class.std::set", %"class.std::__cxx11::basic_string", %"class.std::__cxx11::basic_string", %"class.std::vector", i8, %"class.std::vector.8", i32, i32, i32, i8, i64, %class.cmInstrumentation }
%"class.std::unique_ptr" = type { %"struct.std::__uniq_ptr_data" }
%"struct.std::__uniq_ptr_data" = type { %"class.std::__uniq_ptr_impl" }
%"class.std::__uniq_ptr_impl" = type { %"class.std::tuple" }
%"class.std::tuple" = type { %"struct.std::_Tuple_impl" }
%"struct.std::_Tuple_impl" = type { %"struct.std::_Head_base.1" }
%"struct.std::_Head_base.1" = type { ptr }
%"struct.cmCTestTestHandler::cmCTestTestResult" = type { %"class.std::__cxx11::basic_string", %"class.std::__cxx11::basic_string", %"class.std::__cxx11::basic_string", %"class.std::__cxx11::basic_string", %"class.std::__cxx11::basic_string", %"class.std::chrono::duration", i64, i32, %"class.std::__cxx11::basic_string", i8, %"class.std::__cxx11::basic_string", %"class.std::__cxx11::basic_string", %"class.std::__cxx11::basic_string", %"class.std::__cxx11::basic_string", i32, ptr }
%"class.std::chrono::duration" = type { double }
%"class.std::set" = type { %"class.std::_Rb_tree" }
%"class.std::_Rb_tree" = type { %"struct.std::_Rb_tree<std::__cxx11::basic_string<char>, std::__cxx11::basic_string<char>, std::_Identity<std::__cxx11::basic_string<char>>, std::less<std::__cxx11::basic_string<char>>>::_Rb_tree_impl" }
%"struct.std::_Rb_tree<std::__cxx11::basic_string<char>, std::__cxx11::basic_string<char>, std::_Identity<std::__cxx11::basic_string<char>>, std::less<std::__cxx11::basic_string<char>>>::_Rb_tree_impl" = type { [8 x i8], %"struct.std::_Rb_tree_header" }
%"struct.std::_Rb_tree_header" = type { %"struct.std::_Rb_tree_node_base", i64 }
%"struct.std::_Rb_tree_node_base" = type { i32, ptr, ptr, ptr }
%"class.std::__cxx11::basic_string" = type { %"struct.std::__cxx11::basic_string<char>::_Alloc_hider", i64, %union.anon }
%"struct.std::__cxx11::basic_string<char>::_Alloc_hider" = type { ptr }
%union.anon = type { i64, [8 x i8] }
%"class.std::vector" = type { %"struct.std::_Vector_base" }
%"struct.std::_Vector_base" = type { %"struct.std::_Vector_base<std::__cxx11::basic_string<char>, std::allocator<std::__cxx11::basic_string<char>>>::_Vector_impl" }
%"struct.std::_Vector_base<std::__cxx11::basic_string<char>, std::allocator<std::__cxx11::basic_string<char>>>::_Vector_impl" = type { %"struct.std::_Vector_base<std::__cxx11::basic_string<char>, std::allocator<std::__cxx11::basic_string<char>>>::_Vector_impl_data" }
%"struct.std::_Vector_base<std::__cxx11::basic_string<char>, std::allocator<std::__cxx11::basic_string<char>>>::_Vector_impl_data" = type { ptr, ptr, ptr }
%"class.std::vector.8" = type { %"struct.std::_Vector_base.9" }
%"struct.std::_Vector_base.9" = type { %"struct.std::_Vector_base<std::map<std::__cxx11::basic_string<char>, std::vector<cmCTestMultiProcessHandler::ResourceAllocation>>, std::allocator<std::map<std::__cxx11::basic_string<char>, std::vector<cmCTestMultiProcessHandler::ResourceAllocation>>>>::_Vector_impl" }
%"struct.std::_Vector_base<std::map<std::__cxx11::basic_string<char>, std::vector<cmCTestMultiProcessHandler::ResourceAllocation>>, std::allocator<std::map<std::__cxx11::basic_string<char>, std::vector<cmCTestMultiProcessHandler::ResourceAllocation>>>>::_Vector_impl" = type { %"struct.std::_Vector_base<std::map<std::__cxx11::basic_string<char>, std::vector<cmCTestMultiProcessHandler::ResourceAllocation>>, std::allocator<std::map<std::__cxx11::basic_string<char>, std::vector<cmCTestMultiProcessHandler::ResourceAllocation>>>>::_Vector_impl_data" }
%"struct.std::_Vector_base<std::map<std::__cxx11::basic_string<char>, std::vector<cmCTestMultiProcessHandler::ResourceAllocation>>, std::allocator<std::map<std::__cxx11::basic_string<char>, std::vector<cmCTestMultiProcessHandler::ResourceAllocation>>>>::_Vector_impl_data" = type { ptr, ptr, ptr }
%class.cmInstrumentation = type <{ %"class.std::__cxx11::basic_string", %"class.std::__cxx11::basic_string", %"class.std::__cxx11::basic_string", %"class.std::__cxx11::basic_string", %"class.std::set.13", %"class.std::set.19", %"class.std::vector", %"class.std::vector", %"class.Json::Value", i8, [7 x i8] }>
%"class.std::set.13" = type { %"class.std::_Rb_tree.14" }
%"class.std::_Rb_tree.14" = type { %"struct.std::_Rb_tree<cmInstrumentationQuery::Query, cmInstrumentationQuery::Query, std::_Identity<cmInstrumentationQuery::Query>, std::less<cmInstrumentationQuery::Query>>::_Rb_tree_impl" }
%"struct.std::_Rb_tree<cmInstrumentationQuery::Query, cmInstrumentationQuery::Query, std::_Identity<cmInstrumentationQuery::Query>, std::less<cmInstrumentationQuery::Query>>::_Rb_tree_impl" = type { [8 x i8], %"struct.std::_Rb_tree_header" }
%"class.std::set.19" = type { %"class.std::_Rb_tree.20" }
%"class.std::_Rb_tree.20" = type { %"struct.std::_Rb_tree<cmInstrumentationQuery::Hook, cmInstrumentationQuery::Hook, std::_Identity<cmInstrumentationQuery::Hook>, std::less<cmInstrumentationQuery::Hook>>::_Rb_tree_impl" }
%"struct.std::_Rb_tree<cmInstrumentationQuery::Hook, cmInstrumentationQuery::Hook, std::_Identity<cmInstrumentationQuery::Hook>, std::less<cmInstrumentationQuery::Hook>>::_Rb_tree_impl" = type { [8 x i8], %"struct.std::_Rb_tree_header" }
%"class.Json::Value" = type { %"union.Json::Value::ValueHolder", %struct.anon, %"class.Json::Value::Comments", i64, i64 }
%"union.Json::Value::ValueHolder" = type { i64 }
%struct.anon = type { i16, [2 x i8] }
%"class.Json::Value::Comments" = type { %"class.std::unique_ptr.25" }
%"class.std::unique_ptr.25" = type { %"struct.std::__uniq_ptr_data.26" }
%"struct.std::__uniq_ptr_data.26" = type { %"class.std::__uniq_ptr_impl.27" }
%"class.std::__uniq_ptr_impl.27" = type { %"class.std::tuple.28" }
%"class.std::tuple.28" = type { %"struct.std::_Tuple_impl.29" }
%"struct.std::_Tuple_impl.29" = type { %"struct.std::_Head_base.32" }
%"struct.std::_Head_base.32" = type { ptr }

; Function Attrs: mustprogress nounwind uwtable
define dso_local noundef zeroext i1 @_ZN14cmCTestRunTest13NeedsToRepeatEv(ptr noundef nonnull align 8 dereferenceable(960) %0) #5 align 2 {
  %2 = alloca i1, align 1
  %3 = alloca ptr, align 8
  store ptr %0, ptr %3, align 8, !tbaa !4
  %4 = load ptr, ptr %3, align 8
  %5 = getelementptr inbounds nuw %class.cmCTestRunTest, ptr %4, i32 0, i32 15
  %6 = load i32, ptr %5, align 4, !tbaa !163
  %7 = add nsw i32 %6, -1
  store i32 %7, ptr %5, align 4, !tbaa !163
  %8 = getelementptr inbounds nuw %class.cmCTestRunTest, ptr %4, i32 0, i32 15
  %9 = load i32, ptr %8, align 4, !tbaa !163
  %10 = icmp eq i32 %9, 0
  br i1 %10, label %11, label %12

11:                                               ; preds = %1
  store i1 false, ptr %2, align 1
  br label %48

12:                                               ; preds = %1
  %13 = getelementptr inbounds nuw %class.cmCTestRunTest, ptr %4, i32 0, i32 7
  %14 = getelementptr inbounds nuw %"struct.cmCTestTestHandler::cmCTestTestResult", ptr %13, i32 0, i32 7
  %15 = load i32, ptr %14, align 8, !tbaa !270
  %16 = icmp eq i32 %15, 0
  br i1 %16, label %17, label %18

17:                                               ; preds = %12
  store i1 false, ptr %2, align 1
  br label %48

18:                                               ; preds = %12
  %19 = getelementptr inbounds nuw %class.cmCTestRunTest, ptr %4, i32 0, i32 14
  %20 = load i32, ptr %19, align 8, !tbaa !162
  %21 = icmp eq i32 %20, 1
  br i1 %21, label %22, label %27

22:                                               ; preds = %18
  %23 = getelementptr inbounds nuw %class.cmCTestRunTest, ptr %4, i32 0, i32 7
  %24 = getelementptr inbounds nuw %"struct.cmCTestTestHandler::cmCTestTestResult", ptr %23, i32 0, i32 7
  %25 = load i32, ptr %24, align 8, !tbaa !270
  %26 = icmp eq i32 %25, 9
  br i1 %26, label %45, label %27

27:                                               ; preds = %22, %18
  %28 = getelementptr inbounds nuw %class.cmCTestRunTest, ptr %4, i32 0, i32 14
  %29 = load i32, ptr %28, align 8, !tbaa !162
  %30 = icmp eq i32 %29, 2
  br i1 %30, label %31, label %36

31:                                               ; preds = %27
  %32 = getelementptr inbounds nuw %class.cmCTestRunTest, ptr %4, i32 0, i32 7
  %33 = getelementptr inbounds nuw %"struct.cmCTestTestHandler::cmCTestTestResult", ptr %32, i32 0, i32 7
  %34 = load i32, ptr %33, align 8, !tbaa !270
  %35 = icmp ne i32 %34, 9
  br i1 %35, label %45, label %36

36:                                               ; preds = %31, %27
  %37 = getelementptr inbounds nuw %class.cmCTestRunTest, ptr %4, i32 0, i32 14
  %38 = load i32, ptr %37, align 8, !tbaa !162
  %39 = icmp eq i32 %38, 3
  br i1 %39, label %40, label %47

40:                                               ; preds = %36
  %41 = getelementptr inbounds nuw %class.cmCTestRunTest, ptr %4, i32 0, i32 7
  %42 = getelementptr inbounds nuw %"struct.cmCTestTestHandler::cmCTestTestResult", ptr %41, i32 0, i32 7
  %43 = load i32, ptr %42, align 8, !tbaa !270
  %44 = icmp eq i32 %43, 1
  br i1 %44, label %45, label %47

45:                                               ; preds = %40, %31, %22
  %46 = getelementptr inbounds nuw %class.cmCTestRunTest, ptr %4, i32 0, i32 17
  store i8 1, ptr %46, align 4, !tbaa !165
  store i1 true, ptr %2, align 1
  br label %48

47:                                               ; preds = %40, %36
  store i1 false, ptr %2, align 1
  br label %48

48:                                               ; preds = %47, %45, %17, %11
  %49 = load i1, ptr %2, align 1
  ret i1 %49
}