; Function Attrs: mustprogress nofree norecurse nosync nounwind willreturn memory(argmem: readwrite) uwtable
define dso_local noundef zeroext i1 @_ZN14cmCTestRunTest13NeedsToRepeatEv(ptr noundef nonnull align 8 captures(none) dereferenceable(960) %0) local_unnamed_addr #10 align 2 {
  %2 = getelementptr inbounds nuw i8, ptr %0, i64 620
  %3 = load i32, ptr %2, align 4, !tbaa !168
  %4 = add nsw i32 %3, -1
  store i32 %4, ptr %2, align 4, !tbaa !168
  %5 = icmp eq i32 %4, 0
  br i1 %5, label %19, label %6

6:                                                ; preds = %1
  %7 = getelementptr inbounds nuw i8, ptr %0, i64 256
  %8 = load i32, ptr %7, align 8, !tbaa !392
  %9 = icmp eq i32 %8, 0
  br i1 %9, label %19, label %10

10:                                               ; preds = %6
  %11 = getelementptr inbounds nuw i8, ptr %0, i64 616
  %12 = load i32, ptr %11, align 8, !tbaa !513
  %13 = icmp eq i32 %8, 9
  %or.cond6.v = select i1 %13, i32 1, i32 2
  %or.cond6.not = icmp eq i32 %12, %or.cond6.v
  br i1 %or.cond6.not, label %17, label %14

14:                                               ; preds = %10
  %15 = icmp eq i32 %12, 3
  %16 = icmp eq i32 %8, 1
  %or.cond5 = and i1 %16, %15
  br i1 %or.cond5, label %17, label %19

17:                                               ; preds = %14, %10
  %18 = getelementptr inbounds nuw i8, ptr %0, i64 628
  store i8 1, ptr %18, align 4, !tbaa !170
  br label %19

19:                                               ; preds = %14, %6, %1, %17
  %.0 = phi i1 [ true, %17 ], [ false, %1 ], [ false, %6 ], [ false, %14 ]
  ret i1 %.0
}